#include <math.h>
#include <stdio.h>
#include <stdlib.h>
#include <string.h>
#include <iostream>
using namespace std;

int main()
{
  int a,b,c,d,e;
  for(a=1;a<6;a++)
  { for(b=2;b<=2;b++)
  { for(c=1;c<6;c++)
  { for(d=1;d<6;d++)
  { for(e=1;e<6;e++)
  { if((a!=b)&&(a!=c)&&(a!=d)&&(a!=e)&&(b!=c)&&(b!=d)&&(b!=e)&&(c!=d)&&(c!=e)&&(d!=e)&&(e!=2)&&(e!=3))
   { if(((a==5)&&(c==1))==1)
		 cout<<a<<" "<<b<<" "<<c<<" "<<d<<" "<<e;
	 }
  }
  }
  }
  }
}
  return 0;
}


