; ModuleID = '41/1146.cpp'
source_filename = "41/1146.cpp"
target datalayout = "e-m:e-p270:32:32-p271:32:32-p272:64:64-i64:64-f80:128-n8:16:32:64-S128"
target triple = "x86_64-pc-linux-gnu"

%"class.std::ios_base::Init" = type { i8 }
%"class.std::basic_ostream" = type { i32 (...)**, %"class.std::basic_ios" }
%"class.std::basic_ios" = type { %"class.std::ios_base", %"class.std::basic_ostream"*, i8, i8, %"class.std::basic_streambuf"*, %"class.std::ctype"*, %"class.std::num_put"*, %"class.std::num_get"* }
%"class.std::ios_base" = type { i32 (...)**, i64, i64, i32, i32, i32, %"struct.std::ios_base::_Callback_list"*, %"struct.std::ios_base::_Words", [8 x %"struct.std::ios_base::_Words"], i32, %"struct.std::ios_base::_Words"*, %"class.std::locale" }
%"struct.std::ios_base::_Callback_list" = type { %"struct.std::ios_base::_Callback_list"*, void (i32, %"class.std::ios_base"*, i32)*, i32, i32 }
%"struct.std::ios_base::_Words" = type { i8*, i64 }
%"class.std::locale" = type { %"class.std::locale::_Impl"* }
%"class.std::locale::_Impl" = type { i32, %"class.std::locale::facet"**, i64, %"class.std::locale::facet"**, i8** }
%"class.std::locale::facet" = type <{ i32 (...)**, i32, [4 x i8] }>
%"class.std::basic_streambuf" = type { i32 (...)**, i8*, i8*, i8*, i8*, i8*, i8*, %"class.std::locale" }
%"class.std::ctype" = type <{ %"class.std::locale::facet.base", [4 x i8], %struct.__locale_struct*, i8, [7 x i8], i32*, i32*, i16*, i8, [256 x i8], [256 x i8], i8, [6 x i8] }>
%"class.std::locale::facet.base" = type <{ i32 (...)**, i32 }>
%struct.__locale_struct = type { [13 x %struct.__locale_data*], i16*, i32*, i32*, [13 x i8*] }
%struct.__locale_data = type opaque
%"class.std::num_put" = type { %"class.std::locale::facet.base", [4 x i8] }
%"class.std::num_get" = type { %"class.std::locale::facet.base", [4 x i8] }

@_ZStL8__ioinit = internal global %"class.std::ios_base::Init" zeroinitializer, align 1
@__dso_handle = external hidden global i8
@_ZSt4cout = external dso_local global %"class.std::basic_ostream", align 8
@.str = private unnamed_addr constant [2 x i8] c" \00", align 1
@llvm.global_ctors = appending global [1 x { i32, void ()*, i8* }] [{ i32, void ()*, i8* } { i32 65535, void ()* @_GLOBAL__sub_I_1146.cpp, i8* null }]

; Function Attrs: noinline uwtable
define internal void @__cxx_global_var_init() #0 section ".text.startup" {
  call void @_ZNSt8ios_base4InitC1Ev(%"class.std::ios_base::Init"* @_ZStL8__ioinit)
  %1 = call i32 @__cxa_atexit(void (i8*)* bitcast (void (%"class.std::ios_base::Init"*)* @_ZNSt8ios_base4InitD1Ev to void (i8*)*), i8* getelementptr inbounds (%"class.std::ios_base::Init", %"class.std::ios_base::Init"* @_ZStL8__ioinit, i32 0, i32 0), i8* @__dso_handle) #3
  ret void
}

declare dso_local void @_ZNSt8ios_base4InitC1Ev(%"class.std::ios_base::Init"*) unnamed_addr #1

; Function Attrs: nounwind
declare dso_local void @_ZNSt8ios_base4InitD1Ev(%"class.std::ios_base::Init"*) unnamed_addr #2

; Function Attrs: nounwind
declare dso_local i32 @__cxa_atexit(void (i8*)*, i8*, i8*) #3

; Function Attrs: noinline norecurse uwtable
define dso_local i32 @main() #4 {
  %1 = alloca i32, align 4
  %2 = alloca i32, align 4
  %3 = alloca i32, align 4
  %4 = alloca i32, align 4
  %5 = alloca i32, align 4
  %6 = alloca i32, align 4
  store i32 0, i32* %1, align 4
  store i32 1, i32* %2, align 4
  br label %7

7:                                                ; preds = %115, %0
  %8 = load i32, i32* %2, align 4
  %9 = icmp slt i32 %8, 6
  br i1 %9, label %10, label %118

10:                                               ; preds = %7
  store i32 2, i32* %3, align 4
  br label %11

11:                                               ; preds = %111, %10
  %12 = load i32, i32* %3, align 4
  %13 = icmp sle i32 %12, 2
  br i1 %13, label %14, label %114

14:                                               ; preds = %11
  store i32 1, i32* %4, align 4
  br label %15

15:                                               ; preds = %107, %14
  %16 = load i32, i32* %4, align 4
  %17 = icmp slt i32 %16, 6
  br i1 %17, label %18, label %110

18:                                               ; preds = %15
  store i32 1, i32* %5, align 4
  br label %19

19:                                               ; preds = %103, %18
  %20 = load i32, i32* %5, align 4
  %21 = icmp slt i32 %20, 6
  br i1 %21, label %22, label %106

22:                                               ; preds = %19
  store i32 1, i32* %6, align 4
  br label %23

23:                                               ; preds = %99, %22
  %24 = load i32, i32* %6, align 4
  %25 = icmp slt i32 %24, 6
  br i1 %25, label %26, label %102

26:                                               ; preds = %23
  %27 = load i32, i32* %2, align 4
  %28 = load i32, i32* %3, align 4
  %29 = icmp ne i32 %27, %28
  br i1 %29, label %30, label %98

30:                                               ; preds = %26
  %31 = load i32, i32* %2, align 4
  %32 = load i32, i32* %4, align 4
  %33 = icmp ne i32 %31, %32
  br i1 %33, label %34, label %98

34:                                               ; preds = %30
  %35 = load i32, i32* %2, align 4
  %36 = load i32, i32* %5, align 4
  %37 = icmp ne i32 %35, %36
  br i1 %37, label %38, label %98

38:                                               ; preds = %34
  %39 = load i32, i32* %2, align 4
  %40 = load i32, i32* %6, align 4
  %41 = icmp ne i32 %39, %40
  br i1 %41, label %42, label %98

42:                                               ; preds = %38
  %43 = load i32, i32* %3, align 4
  %44 = load i32, i32* %4, align 4
  %45 = icmp ne i32 %43, %44
  br i1 %45, label %46, label %98

46:                                               ; preds = %42
  %47 = load i32, i32* %3, align 4
  %48 = load i32, i32* %5, align 4
  %49 = icmp ne i32 %47, %48
  br i1 %49, label %50, label %98

50:                                               ; preds = %46
  %51 = load i32, i32* %3, align 4
  %52 = load i32, i32* %6, align 4
  %53 = icmp ne i32 %51, %52
  br i1 %53, label %54, label %98

54:                                               ; preds = %50
  %55 = load i32, i32* %4, align 4
  %56 = load i32, i32* %5, align 4
  %57 = icmp ne i32 %55, %56
  br i1 %57, label %58, label %98

58:                                               ; preds = %54
  %59 = load i32, i32* %4, align 4
  %60 = load i32, i32* %6, align 4
  %61 = icmp ne i32 %59, %60
  br i1 %61, label %62, label %98

62:                                               ; preds = %58
  %63 = load i32, i32* %5, align 4
  %64 = load i32, i32* %6, align 4
  %65 = icmp ne i32 %63, %64
  br i1 %65, label %66, label %98

66:                                               ; preds = %62
  %67 = load i32, i32* %6, align 4
  %68 = icmp ne i32 %67, 2
  br i1 %68, label %69, label %98

69:                                               ; preds = %66
  %70 = load i32, i32* %6, align 4
  %71 = icmp ne i32 %70, 3
  br i1 %71, label %72, label %98

72:                                               ; preds = %69
  %73 = load i32, i32* %2, align 4
  %74 = icmp eq i32 %73, 5
  br i1 %74, label %75, label %78

75:                                               ; preds = %72
  %76 = load i32, i32* %4, align 4
  %77 = icmp eq i32 %76, 1
  br label %78

78:                                               ; preds = %75, %72
  %79 = phi i1 [ false, %72 ], [ %77, %75 ]
  %80 = zext i1 %79 to i32
  %81 = icmp eq i32 %80, 1
  br i1 %81, label %82, label %97

82:                                               ; preds = %78
  %83 = load i32, i32* %2, align 4
  %84 = call dereferenceable(272) %"class.std::basic_ostream"* @_ZNSolsEi(%"class.std::basic_ostream"* @_ZSt4cout, i32 %83)
  %85 = call dereferenceable(272) %"class.std::basic_ostream"* @_ZStlsISt11char_traitsIcEERSt13basic_ostreamIcT_ES5_PKc(%"class.std::basic_ostream"* dereferenceable(272) %84, i8* getelementptr inbounds ([2 x i8], [2 x i8]* @.str, i64 0, i64 0))
  %86 = load i32, i32* %3, align 4
  %87 = call dereferenceable(272) %"class.std::basic_ostream"* @_ZNSolsEi(%"class.std::basic_ostream"* %85, i32 %86)
  %88 = call dereferenceable(272) %"class.std::basic_ostream"* @_ZStlsISt11char_traitsIcEERSt13basic_ostreamIcT_ES5_PKc(%"class.std::basic_ostream"* dereferenceable(272) %87, i8* getelementptr inbounds ([2 x i8], [2 x i8]* @.str, i64 0, i64 0))
  %89 = load i32, i32* %4, align 4
  %90 = call dereferenceable(272) %"class.std::basic_ostream"* @_ZNSolsEi(%"class.std::basic_ostream"* %88, i32 %89)
  %91 = call dereferenceable(272) %"class.std::basic_ostream"* @_ZStlsISt11char_traitsIcEERSt13basic_ostreamIcT_ES5_PKc(%"class.std::basic_ostream"* dereferenceable(272) %90, i8* getelementptr inbounds ([2 x i8], [2 x i8]* @.str, i64 0, i64 0))
  %92 = load i32, i32* %5, align 4
  %93 = call dereferenceable(272) %"class.std::basic_ostream"* @_ZNSolsEi(%"class.std::basic_ostream"* %91, i32 %92)
  %94 = call dereferenceable(272) %"class.std::basic_ostream"* @_ZStlsISt11char_traitsIcEERSt13basic_ostreamIcT_ES5_PKc(%"class.std::basic_ostream"* dereferenceable(272) %93, i8* getelementptr inbounds ([2 x i8], [2 x i8]* @.str, i64 0, i64 0))
  %95 = load i32, i32* %6, align 4
  %96 = call dereferenceable(272) %"class.std::basic_ostream"* @_ZNSolsEi(%"class.std::basic_ostream"* %94, i32 %95)
  br label %97

97:                                               ; preds = %82, %78
  br label %98

98:                                               ; preds = %97, %69, %66, %62, %58, %54, %50, %46, %42, %38, %34, %30, %26
  br label %99

99:                                               ; preds = %98
  %100 = load i32, i32* %6, align 4
  %101 = add nsw i32 %100, 1
  store i32 %101, i32* %6, align 4
  br label %23

102:                                              ; preds = %23
  br label %103

103:                                              ; preds = %102
  %104 = load i32, i32* %5, align 4
  %105 = add nsw i32 %104, 1
  store i32 %105, i32* %5, align 4
  br label %19

106:                                              ; preds = %19
  br label %107

107:                                              ; preds = %106
  %108 = load i32, i32* %4, align 4
  %109 = add nsw i32 %108, 1
  store i32 %109, i32* %4, align 4
  br label %15

110:                                              ; preds = %15
  br label %111

111:                                              ; preds = %110
  %112 = load i32, i32* %3, align 4
  %113 = add nsw i32 %112, 1
  store i32 %113, i32* %3, align 4
  br label %11

114:                                              ; preds = %11
  br label %115

115:                                              ; preds = %114
  %116 = load i32, i32* %2, align 4
  %117 = add nsw i32 %116, 1
  store i32 %117, i32* %2, align 4
  br label %7

118:                                              ; preds = %7
  ret i32 0
}

declare dso_local dereferenceable(272) %"class.std::basic_ostream"* @_ZStlsISt11char_traitsIcEERSt13basic_ostreamIcT_ES5_PKc(%"class.std::basic_ostream"* dereferenceable(272), i8*) #1

declare dso_local dereferenceable(272) %"class.std::basic_ostream"* @_ZNSolsEi(%"class.std::basic_ostream"*, i32) #1

; Function Attrs: noinline uwtable
define internal void @_GLOBAL__sub_I_1146.cpp() #0 section ".text.startup" {
  call void @__cxx_global_var_init()
  ret void
}


!llvm.module.flags = !{!0}
!llvm.ident = !{!1}

!0 = !{i32 1, !"wchar_size", i32 4}
!1 = !{!"clang version 10.0.0-4ubuntu1 "}
